target datalayout = "e-m:e-p270:32:32-p271:32:32-p272:64:64-i64:64-i128:128-f80:128-n8:16:32:64-S128"
target triple = "x86_64-pc-linux-gnu"

%"class.zmq::v1_decoder_t" = type { %"class.zmq::decoder_base_t", [8 x i8], %"class.zmq::msg_t", i64 }
%"class.zmq::decoder_base_t" = type { %"class.zmq::i_decoder", { i64, i64 }, ptr, i64, %"class.zmq::c_single_allocator", ptr }
%"class.zmq::i_decoder" = type { ptr }
%"class.zmq::c_single_allocator" = type { i64, ptr }
%"class.zmq::msg_t" = type { %union.anon }
%union.anon = type { %struct.anon }
%struct.anon = type { ptr, [34 x i8], i8, i8, i32, %"union.zmq::msg_t::group_t" }
%"union.zmq::msg_t::group_t" = type { %struct.anon.1 }
%struct.anon.1 = type { i8, ptr }

@stderr = external global ptr, align 8
@.str = private unnamed_addr constant [12 x i8] c"%s (%s:%d)\0A\00", align 1
@.str.1 = private unnamed_addr constant [110 x i8] c"generated/home/dtcxzyw/WorkSpace/Projects/compilers/llvm-opt-benchmark/bench/libzmq/libzmq/src/v1_decoder.cpp\00", align 1

; Function Attrs: mustprogress nounwind uwtable
define linkonce_odr void @_ZN3zmq9i_decoderD2Ev(ptr noundef nonnull align 8 dereferenceable(8) %0) unnamed_addr #6 comdat align 2 {
  %2 = alloca ptr, align 8
  store ptr %0, ptr %2, align 8, !tbaa !42
  ret void
}

; Function Attrs: mustprogress nounwind uwtable
define linkonce_odr void @_ZN3zmq18c_single_allocatorD2Ev(ptr noundef nonnull align 8 dereferenceable(16) %0) unnamed_addr #6 comdat align 2 {
  %2 = alloca ptr, align 8
  store ptr %0, ptr %2, align 8, !tbaa !44
  %3 = load ptr, ptr %2, align 8
  %4 = getelementptr inbounds nuw %"class.zmq::c_single_allocator", ptr %3, i32 0, i32 1
  %5 = load ptr, ptr %4, align 8, !tbaa !47
  call void @free(ptr noundef %5) #13
  ret void
}

; Function Attrs: mustprogress nounwind uwtable
define linkonce_odr void @_ZN3zmq18c_single_allocator10deallocateEv(ptr noundef nonnull align 8 dereferenceable(16) %0) #6 comdat align 2 {
  %2 = alloca ptr, align 8
  store ptr %0, ptr %2, align 8, !tbaa !44
  ret void
}

; Function Attrs: mustprogress nounwind uwtable
define linkonce_odr void @_ZN3zmq14decoder_base_tINS_12v1_decoder_tENS_18c_single_allocatorEED2Ev(ptr noundef nonnull align 8 dereferenceable(64) %0) unnamed_addr #6 comdat align 2 personality ptr @__gxx_personality_v0 {
  %2 = alloca ptr, align 8
  store ptr %0, ptr %2, align 8, !tbaa !25
  %3 = load ptr, ptr %2, align 8
  store ptr getelementptr inbounds inrange(-16, 48) ({ [8 x ptr] }, ptr @_ZTVN3zmq14decoder_base_tINS_12v1_decoder_tENS_18c_single_allocatorEEE, i32 0, i32 0, i32 2), ptr %3, align 8, !tbaa !10
  %4 = getelementptr inbounds nuw %"class.zmq::decoder_base_t", ptr %3, i32 0, i32 4
  invoke void @_ZN3zmq18c_single_allocator10deallocateEv(ptr noundef nonnull align 8 dereferenceable(16) %4)
          to label %5 unwind label %7

5:                                                ; preds = %1
  %6 = getelementptr inbounds nuw %"class.zmq::decoder_base_t", ptr %3, i32 0, i32 4
  call void @_ZN3zmq18c_single_allocatorD2Ev(ptr noundef nonnull align 8 dereferenceable(16) %6) #13
  call void @_ZN3zmq9i_decoderD2Ev(ptr noundef nonnull align 8 dereferenceable(8) %3) #13
  ret void

7:                                                ; preds = %1
  %8 = landingpad { ptr, i32 }
          catch ptr null
  %9 = extractvalue { ptr, i32 } %8, 0
  call void @__clang_call_terminate(ptr %9) #15
  unreachable
}

; Function Attrs: mustprogress nounwind uwtable
define void @_ZN3zmq12v1_decoder_tD2Ev(ptr noundef nonnull align 8 dereferenceable(144) %0) unnamed_addr #6 align 2 personality ptr @__gxx_personality_v0 {
  %2 = alloca ptr, align 8
  %3 = alloca i32, align 4
  %4 = alloca ptr, align 8
  store ptr %0, ptr %2, align 8, !tbaa !3
  %5 = load ptr, ptr %2, align 8
  call void @llvm.lifetime.start.p0(i64 4, ptr %3) #13
  %6 = getelementptr inbounds nuw %"class.zmq::v1_decoder_t", ptr %5, i32 0, i32 2
  %7 = invoke noundef i32 @_ZN3zmq5msg_t5closeEv(ptr noundef nonnull align 8 dereferenceable(64) %6)
          to label %8 unwind label %31

8:                                                ; preds = %1
  store i32 %7, ptr %3, align 4, !tbaa !19
  br label %9

9:                                                ; preds = %8
  %10 = load i32, ptr %3, align 4, !tbaa !19
  %11 = icmp eq i32 %10, 0
  %12 = xor i1 %11, true
  %13 = zext i1 %12 to i64
  %14 = call i64 @llvm.expect.i64(i64 %13, i64 0)
  %15 = icmp ne i64 %14, 0
  br i1 %15, label %16, label %28

16:                                               ; preds = %9
  call void @llvm.lifetime.start.p0(i64 8, ptr %4) #13
  %17 = call ptr @__errno_location() #14
  %18 = load i32, ptr %17, align 4, !tbaa !19
  %19 = call ptr @strerror(i32 noundef %18) #13
  store ptr %19, ptr %4, align 8, !tbaa !21
  %20 = load ptr, ptr @stderr, align 8, !tbaa !22
  %21 = load ptr, ptr %4, align 8, !tbaa !21
  %22 = call i32 (ptr, ptr, ...) @fprintf(ptr noundef %20, ptr noundef @.str, ptr noundef %21, ptr noundef @.str.1, i32 noundef 28) #13
  %23 = load ptr, ptr @stderr, align 8, !tbaa !22
  %24 = invoke i32 @fflush(ptr noundef %23)
          to label %25 unwind label %31

25:                                               ; preds = %16
  %26 = load ptr, ptr %4, align 8, !tbaa !21
  invoke void @_ZN3zmq9zmq_abortEPKc(ptr noundef %26)
          to label %27 unwind label %31

27:                                               ; preds = %25
  call void @llvm.lifetime.end.p0(i64 8, ptr %4) #13
  br label %28

28:                                               ; preds = %27, %9
  br label %29

29:                                               ; preds = %28
  br label %30

30:                                               ; preds = %29
  call void @llvm.lifetime.end.p0(i64 4, ptr %3) #13
  call void @_ZN3zmq14decoder_base_tINS_12v1_decoder_tENS_18c_single_allocatorEED2Ev(ptr noundef nonnull align 8 dereferenceable(64) %5) #13
  ret void

31:                                               ; preds = %25, %16, %1
  %32 = landingpad { ptr, i32 }
          catch ptr null
  %33 = extractvalue { ptr, i32 } %32, 0
  call void @__clang_call_terminate(ptr %33) #15
  unreachable
}