; Function Attrs: mustprogress nounwind uwtable
define void @_ZN3zmq12v1_decoder_tD2Ev(ptr noundef nonnull align 8 dereferenceable(144) %0) unnamed_addr #5 align 2 personality ptr @__gxx_personality_v0 {
  %2 = getelementptr inbounds nuw i8, ptr %0, i64 72
  %3 = invoke noundef i32 @_ZN3zmq5msg_t5closeEv(ptr noundef nonnull align 8 dereferenceable(64) %2)
          to label %4 unwind label %16

4:                                                ; preds = %1
  %.not = icmp eq i32 %3, 0
  br i1 %.not, label %13, label %5, !prof !22

5:                                                ; preds = %4
  %6 = tail call ptr @__errno_location() #18
  %7 = load i32, ptr %6, align 4, !tbaa !23
  %8 = tail call ptr @strerror(i32 noundef %7) #19
  %9 = load ptr, ptr @stderr, align 8, !tbaa !14
  %10 = tail call i32 (ptr, ptr, ...) @fprintf(ptr noundef %9, ptr noundef nonnull @.str, ptr noundef %8, ptr noundef nonnull @.str.1, i32 noundef 28) #17
  %11 = load ptr, ptr @stderr, align 8, !tbaa !14
  %12 = tail call i32 @fflush(ptr noundef %11)
  invoke void @_ZN3zmq9zmq_abortEPKc(ptr noundef %8)
          to label %13 unwind label %16

13:                                               ; preds = %5, %4
  store ptr getelementptr inbounds nuw inrange(-16, 48) (i8, ptr @_ZTVN3zmq14decoder_base_tINS_12v1_decoder_tENS_18c_single_allocatorEEE, i64 16), ptr %0, align 8, !tbaa !3
  %14 = getelementptr inbounds nuw i8, ptr %0, i64 48
  %15 = load ptr, ptr %14, align 8, !tbaa !12
  tail call void @free(ptr noundef %15) #19
  ret void

16:                                               ; preds = %5, %1
  %17 = landingpad { ptr, i32 }
          catch ptr null
  %18 = extractvalue { ptr, i32 } %17, 0
  tail call void @__clang_call_terminate(ptr %18) #20
  unreachable
}